target datalayout = "e-m:e-p270:32:32-p271:32:32-p272:64:64-i64:64-i128:128-f80:128-n8:16:32:64-S128"
target triple = "x86_64-pc-linux-gnu"

%struct.LZ4IO_prefs_s = type { i32, i32, i32, i32, i64, i32, i32, i32, i32, i32, i32, i32, ptr, i32, i32 }

@LZ4IO_setBlockSizeID.blockSizeTable = internal constant [4 x i64] [i64 65536, i64 262144, i64 1048576, i64 4194304], align 16

; Function Attrs: nounwind uwtable
define dso_local i64 @LZ4IO_setBlockSizeID(ptr noundef %0, i32 noundef %1) #0 {
  %3 = alloca i64, align 8
  %4 = alloca ptr, align 8
  %5 = alloca i32, align 4
  store ptr %0, ptr %4, align 8, !tbaa !4
  store i32 %1, ptr %5, align 4, !tbaa !9
  %6 = load i32, ptr %5, align 4, !tbaa !9
  %7 = icmp ult i32 %6, 4
  br i1 %7, label %11, label %8

8:                                                ; preds = %2
  %9 = load i32, ptr %5, align 4, !tbaa !9
  %10 = icmp ugt i32 %9, 7
  br i1 %10, label %11, label %12

11:                                               ; preds = %8, %2
  store i64 0, ptr %3, align 8
  br label %28

12:                                               ; preds = %8
  %13 = load i32, ptr %5, align 4, !tbaa !9
  %14 = load ptr, ptr %4, align 8, !tbaa !4
  %15 = getelementptr inbounds nuw %struct.LZ4IO_prefs_s, ptr %14, i32 0, i32 3
  store i32 %13, ptr %15, align 4, !tbaa !19
  %16 = load ptr, ptr %4, align 8, !tbaa !4
  %17 = getelementptr inbounds nuw %struct.LZ4IO_prefs_s, ptr %16, i32 0, i32 3
  %18 = load i32, ptr %17, align 4, !tbaa !19
  %19 = sub i32 %18, 4
  %20 = zext i32 %19 to i64
  %21 = getelementptr inbounds nuw [4 x i64], ptr @LZ4IO_setBlockSizeID.blockSizeTable, i64 0, i64 %20
  %22 = load i64, ptr %21, align 8, !tbaa !32
  %23 = load ptr, ptr %4, align 8, !tbaa !4
  %24 = getelementptr inbounds nuw %struct.LZ4IO_prefs_s, ptr %23, i32 0, i32 4
  store i64 %22, ptr %24, align 8, !tbaa !20
  %25 = load ptr, ptr %4, align 8, !tbaa !4
  %26 = getelementptr inbounds nuw %struct.LZ4IO_prefs_s, ptr %25, i32 0, i32 4
  %27 = load i64, ptr %26, align 8, !tbaa !20
  store i64 %27, ptr %3, align 8
  br label %28

28:                                               ; preds = %12, %11
  %29 = load i64, ptr %3, align 8
  ret i64 %29
}