; Function Attrs: mustprogress nofree norecurse nosync nounwind willreturn memory(argmem: write) uwtable
define dso_local i64 @LZ4IO_setBlockSizeID(ptr noundef writeonly captures(none) %0, i32 noundef %1) local_unnamed_addr #8 {
  %3 = and i32 %1, -4
  %or.cond.not = icmp eq i32 %3, 4
  br i1 %or.cond.not, label %4, label %11

4:                                                ; preds = %2
  %5 = getelementptr inbounds nuw i8, ptr %0, i64 12
  store i32 %1, ptr %5, align 4, !tbaa !17
  %6 = add nsw i32 %1, -4
  %7 = zext nneg i32 %6 to i64
  %8 = getelementptr inbounds nuw [4 x i64], ptr @LZ4IO_setBlockSizeID.blockSizeTable, i64 0, i64 %7
  %9 = load i64, ptr %8, align 8, !tbaa !29
  %10 = getelementptr inbounds nuw i8, ptr %0, i64 16
  store i64 %9, ptr %10, align 8, !tbaa !18
  br label %11

11:                                               ; preds = %2, %4
  %.0 = phi i64 [ %9, %4 ], [ 0, %2 ]
  ret i64 %.0
}